target datalayout = "e-m:e-p270:32:32-p271:32:32-p272:64:64-i64:64-i128:128-f80:128-n8:16:32:64-S128"
target triple = "x86_64-pc-linux-gnu"

%struct.QemuMutex = type { %union.pthread_mutex_t, i8 }
%union.pthread_mutex_t = type { %struct.__pthread_mutex_s }
%struct.__pthread_mutex_s = type { i32, i32, i32, i32, i32, i16, i16, %struct.__pthread_internal_list }
%struct.__pthread_internal_list = type { ptr, ptr }
%struct.Job = type { ptr, ptr, ptr, i8, i8, ptr, ptr, %struct.ProgressMeter, ptr, i32, i32, %struct.QEMUTimer, i32, i8, i8, i8, i8, i8, i8, i32, ptr, %struct.NotifierList, %struct.NotifierList, %struct.NotifierList, %struct.NotifierList, %struct.NotifierList, %struct.anon.1, ptr, %struct.anon.2 }
%struct.ProgressMeter = type { i64, i64, %struct.QemuMutex }
%struct.QEMUTimer = type { i64, ptr, ptr, ptr, ptr, i32, i32 }
%struct.NotifierList = type { %struct.anon.0 }
%struct.anon.0 = type { ptr }
%struct.anon.1 = type { ptr, ptr }
%struct.anon.2 = type { ptr, ptr }
%struct.JobDriver = type { i64, i32, ptr, ptr, ptr, ptr, ptr, ptr, ptr, ptr, ptr, ptr, ptr }

@qemu_mutex_lock_func = external global ptr, align 8
@job_mutex = dso_local global %struct.QemuMutex zeroinitializer, align 8
@.str = private unnamed_addr constant [14 x i8] c"../qemu/job.c\00", align 1
@.str.5 = private unnamed_addr constant [37 x i8] c"job->cancelled || !job->force_cancel\00", align 1
@__PRETTY_FUNCTION__.job_is_cancelled_locked = private unnamed_addr constant [37 x i8] c"_Bool job_is_cancelled_locked(Job *)\00", align 1
@.str.24 = private unnamed_addr constant [13 x i8] c"coroutine_fn\00", section "llvm.metadata"
@.str.25 = private unnamed_addr constant [97 x i8] c"/home/dtcxzyw/WorkSpace/Projects/compilers/llvm-opt-benchmark/bench/qemu/qemu/include/qemu/job.h\00", section "llvm.metadata"
@.str.37 = private unnamed_addr constant [31 x i8] c"job && job_started_locked(job)\00", align 1
@__PRETTY_FUNCTION__.job_pause_point_locked = private unnamed_addr constant [35 x i8] c"void job_pause_point_locked(Job *)\00", align 1

; Function Attrs: nounwind sspstrong uwtable
define dso_local void @job_lock() #0 {
  %1 = alloca ptr, align 8
  %2 = alloca ptr, align 8
  %3 = alloca ptr, align 8
  call void @llvm.lifetime.start.p0(i64 8, ptr %1) #16
  br label %4

4:                                                ; preds = %0
  br i1 false, label %5, label %6

5:                                                ; preds = %4
  call void @qemu_build_not_reached_always() #17, !srcloc !4
  unreachable

6:                                                ; preds = %4
  %7 = load atomic i64, ptr @qemu_mutex_lock_func monotonic, align 8
  store i64 %7, ptr %3, align 8
  %8 = load ptr, ptr %3, align 8
  store ptr %8, ptr %2, align 8
  %9 = load ptr, ptr %2, align 8
  store ptr %9, ptr %1, align 8
  %10 = load ptr, ptr %1, align 8
  call void %10(ptr noundef @job_mutex, ptr noundef @.str, i32 noundef 101)
  call void @llvm.lifetime.end.p0(i64 8, ptr %1) #16
  ret void
}

; Function Attrs: nounwind sspstrong uwtable
define dso_local void @job_unlock() #0 {
  call void @qemu_mutex_unlock_impl(ptr noundef @job_mutex, ptr noundef @.str, i32 noundef 106)
  ret void
}

; Function Attrs: nounwind sspstrong uwtable
define dso_local zeroext i1 @job_is_cancelled_locked(ptr noundef %0) #0 {
  %2 = alloca ptr, align 8
  store ptr %0, ptr %2, align 8
  %3 = load ptr, ptr %2, align 8
  %4 = getelementptr inbounds nuw %struct.Job, ptr %3, i32 0, i32 16
  %5 = load i8, ptr %4, align 1, !range !7, !noundef !8
  %6 = trunc i8 %5 to i1
  br i1 %6, label %12, label %7

7:                                                ; preds = %1
  %8 = load ptr, ptr %2, align 8
  %9 = getelementptr inbounds nuw %struct.Job, ptr %8, i32 0, i32 17
  %10 = load i8, ptr %9, align 8, !range !7, !noundef !8
  %11 = trunc i8 %10 to i1
  br i1 %11, label %13, label %12

12:                                               ; preds = %7, %1
  br label %14

13:                                               ; preds = %7
  call void @__assert_fail(ptr noundef @.str.5, ptr noundef @.str, i32 noundef 250, ptr noundef @__PRETTY_FUNCTION__.job_is_cancelled_locked) #20
  unreachable

14:                                               ; preds = %12
  %15 = load ptr, ptr %2, align 8
  %16 = getelementptr inbounds nuw %struct.Job, ptr %15, i32 0, i32 17
  %17 = load i8, ptr %16, align 8, !range !7, !noundef !8
  %18 = trunc i8 %17 to i1
  ret i1 %18
}

; Function Attrs: nounwind sspstrong uwtable
define internal zeroext i1 @job_should_pause_locked(ptr noundef %0) #0 {
  %2 = alloca ptr, align 8
  store ptr %0, ptr %2, align 8
  %3 = load ptr, ptr %2, align 8
  %4 = getelementptr inbounds nuw %struct.Job, ptr %3, i32 0, i32 12
  %5 = load i32, ptr %4, align 8
  %6 = icmp sgt i32 %5, 0
  ret i1 %6
}

; Function Attrs: nounwind sspstrong uwtable
define internal zeroext i1 @job_started_locked(ptr noundef %0) #0 {
  %2 = alloca ptr, align 8
  store ptr %0, ptr %2, align 8
  %3 = load ptr, ptr %2, align 8
  %4 = getelementptr inbounds nuw %struct.Job, ptr %3, i32 0, i32 2
  %5 = load ptr, ptr %4, align 8
  %6 = icmp ne ptr %5, null
  ret i1 %6
}

; Function Attrs: nounwind sspstrong uwtable
define internal void @job_pause_point_locked(ptr noundef %0) #0 {
  %2 = alloca ptr, align 8
  %3 = alloca i32, align 4
  store ptr %0, ptr %2, align 8
  %4 = load ptr, ptr %2, align 8
  %5 = icmp ne ptr %4, null
  br i1 %5, label %6, label %10

6:                                                ; preds = %1
  %7 = load ptr, ptr %2, align 8
  %8 = call zeroext i1 @job_started_locked(ptr noundef %7)
  br i1 %8, label %9, label %10

9:                                                ; preds = %6
  br label %11

10:                                               ; preds = %6, %1
  call void @__assert_fail(ptr noundef @.str.37, ptr noundef @.str, i32 noundef 605, ptr noundef @__PRETTY_FUNCTION__.job_pause_point_locked) #20
  unreachable

11:                                               ; preds = %9
  %12 = load ptr, ptr %2, align 8
  %13 = call zeroext i1 @job_should_pause_locked(ptr noundef %12)
  br i1 %13, label %15, label %14

14:                                               ; preds = %11
  br label %72

15:                                               ; preds = %11
  %16 = load ptr, ptr %2, align 8
  %17 = call zeroext i1 @job_is_cancelled_locked(ptr noundef %16)
  br i1 %17, label %18, label %19

18:                                               ; preds = %15
  br label %72

19:                                               ; preds = %15
  %20 = load ptr, ptr %2, align 8
  %21 = getelementptr inbounds nuw %struct.Job, ptr %20, i32 0, i32 1
  %22 = load ptr, ptr %21, align 8
  %23 = getelementptr inbounds nuw %struct.JobDriver, ptr %22, i32 0, i32 3
  %24 = call ptr @llvm.ptr.annotation.p0.p0(ptr %23, ptr @.str.24, ptr @.str.25, i32 230, ptr null)
  %25 = load ptr, ptr %24, align 8
  %26 = icmp ne ptr %25, null
  br i1 %26, label %27, label %35

27:                                               ; preds = %19
  call void @job_unlock()
  %28 = load ptr, ptr %2, align 8
  %29 = getelementptr inbounds nuw %struct.Job, ptr %28, i32 0, i32 1
  %30 = load ptr, ptr %29, align 8
  %31 = getelementptr inbounds nuw %struct.JobDriver, ptr %30, i32 0, i32 3
  %32 = call ptr @llvm.ptr.annotation.p0.p0(ptr %31, ptr @.str.24, ptr @.str.25, i32 230, ptr null)
  %33 = load ptr, ptr %32, align 8
  %34 = load ptr, ptr %2, align 8
  call void %33(ptr noundef %34)
  call void @job_lock()
  br label %35

35:                                               ; preds = %27, %19
  %36 = load ptr, ptr %2, align 8
  %37 = call zeroext i1 @job_should_pause_locked(ptr noundef %36)
  br i1 %37, label %38, label %56

38:                                               ; preds = %35
  %39 = load ptr, ptr %2, align 8
  %40 = call zeroext i1 @job_is_cancelled_locked(ptr noundef %39)
  br i1 %40, label %56, label %41

41:                                               ; preds = %38
  call void @llvm.lifetime.start.p0(i64 4, ptr %3) #16
  %42 = load ptr, ptr %2, align 8
  %43 = getelementptr inbounds nuw %struct.Job, ptr %42, i32 0, i32 10
  %44 = load i32, ptr %43, align 4
  store i32 %44, ptr %3, align 4
  %45 = load ptr, ptr %2, align 8
  %46 = load i32, ptr %3, align 4
  %47 = icmp eq i32 %46, 4
  %48 = select i1 %47, i32 5, i32 3
  call void @job_state_transition_locked(ptr noundef %45, i32 noundef %48)
  %49 = load ptr, ptr %2, align 8
  %50 = getelementptr inbounds nuw %struct.Job, ptr %49, i32 0, i32 14
  store i8 1, ptr %50, align 1
  %51 = load ptr, ptr %2, align 8
  call void @job_do_yield_locked(ptr noundef %51, i64 noundef -1)
  %52 = load ptr, ptr %2, align 8
  %53 = getelementptr inbounds nuw %struct.Job, ptr %52, i32 0, i32 14
  store i8 0, ptr %53, align 1
  %54 = load ptr, ptr %2, align 8
  %55 = load i32, ptr %3, align 4
  call void @job_state_transition_locked(ptr noundef %54, i32 noundef %55)
  call void @llvm.lifetime.end.p0(i64 4, ptr %3) #16
  br label %56

56:                                               ; preds = %41, %38, %35
  %57 = load ptr, ptr %2, align 8
  %58 = getelementptr inbounds nuw %struct.Job, ptr %57, i32 0, i32 1
  %59 = load ptr, ptr %58, align 8
  %60 = getelementptr inbounds nuw %struct.JobDriver, ptr %59, i32 0, i32 4
  %61 = call ptr @llvm.ptr.annotation.p0.p0(ptr %60, ptr @.str.24, ptr @.str.25, i32 237, ptr null)
  %62 = load ptr, ptr %61, align 8
  %63 = icmp ne ptr %62, null
  br i1 %63, label %64, label %72

64:                                               ; preds = %56
  call void @job_unlock()
  %65 = load ptr, ptr %2, align 8
  %66 = getelementptr inbounds nuw %struct.Job, ptr %65, i32 0, i32 1
  %67 = load ptr, ptr %66, align 8
  %68 = getelementptr inbounds nuw %struct.JobDriver, ptr %67, i32 0, i32 4
  %69 = call ptr @llvm.ptr.annotation.p0.p0(ptr %68, ptr @.str.24, ptr @.str.25, i32 237, ptr null)
  %70 = load ptr, ptr %69, align 8
  %71 = load ptr, ptr %2, align 8
  call void %70(ptr noundef %71)
  call void @job_lock()
  br label %72

72:                                               ; preds = %14, %18, %64, %56
  ret void
}