; Function Attrs: nounwind sspstrong uwtable
define internal void @job_pause_point_locked(ptr noundef %0) #0 {
  %.not = icmp eq ptr %0, null
  br i1 %.not, label %4, label %2

2:                                                ; preds = %1
  %3 = getelementptr i8, ptr %0, i64 16
  %.val = load ptr, ptr %3, align 8
  %.not30 = icmp eq ptr %.val, null
  br i1 %.not30, label %4, label %5

4:                                                ; preds = %2, %1
  tail call void @__assert_fail(ptr noundef nonnull @.str.37, ptr noundef nonnull @.str, i32 noundef 605, ptr noundef nonnull @__PRETTY_FUNCTION__.job_pause_point_locked) #17
  unreachable

5:                                                ; preds = %2
  %6 = getelementptr i8, ptr %0, i64 176
  %.val21 = load i32, ptr %6, align 8
  %7 = icmp sgt i32 %.val21, 0
  br i1 %7, label %8, label %48

8:                                                ; preds = %5
  %9 = getelementptr inbounds nuw i8, ptr %0, i64 183
  %10 = load i8, ptr %9, align 1, !range !4, !noundef !5
  %11 = trunc nuw i8 %10 to i1
  %.phi.trans.insert.i = getelementptr inbounds nuw i8, ptr %0, i64 184
  %.pre.i = load i8, ptr %.phi.trans.insert.i, align 8, !range !4
  %.pre3.i = trunc nuw i8 %.pre.i to i1
  %.pre3.not.i = xor i1 %.pre3.i, true
  %brmerge.i = select i1 %11, i1 true, i1 %.pre3.not.i
  br i1 %brmerge.i, label %job_is_cancelled_locked.exit, label %12

12:                                               ; preds = %8
  tail call void @__assert_fail(ptr noundef nonnull @.str.5, ptr noundef nonnull @.str, i32 noundef 250, ptr noundef nonnull @__PRETTY_FUNCTION__.job_is_cancelled_locked) #17
  unreachable

job_is_cancelled_locked.exit:                     ; preds = %8
  %.pre3.mux.i = select i1 %11, i1 %.pre3.i, i1 false
  br i1 %.pre3.mux.i, label %48, label %13

13:                                               ; preds = %job_is_cancelled_locked.exit
  %14 = getelementptr inbounds nuw i8, ptr %0, i64 8
  %15 = load ptr, ptr %14, align 8
  %16 = getelementptr inbounds nuw i8, ptr %15, i64 24
  %17 = tail call ptr @llvm.ptr.annotation.p0.p0(ptr nonnull %16, ptr nonnull @.str.24, ptr nonnull @.str.25, i32 230, ptr null)
  %18 = load ptr, ptr %17, align 8
  %.not19 = icmp eq ptr %18, null
  br i1 %.not19, label %.thread, label %19

19:                                               ; preds = %13
  tail call void @qemu_mutex_unlock_impl(ptr noundef nonnull @job_mutex, ptr noundef nonnull @.str, i32 noundef 106) #15
  %20 = load ptr, ptr %14, align 8
  %21 = getelementptr inbounds nuw i8, ptr %20, i64 24
  %22 = tail call ptr @llvm.ptr.annotation.p0.p0(ptr nonnull %21, ptr nonnull @.str.24, ptr nonnull @.str.25, i32 230, ptr null)
  %23 = load ptr, ptr %22, align 8
  tail call void %23(ptr noundef nonnull %0) #15
  %24 = load atomic i64, ptr @qemu_mutex_lock_func monotonic, align 8
  %25 = inttoptr i64 %24 to ptr
  tail call void %25(ptr noundef nonnull @job_mutex, ptr noundef nonnull @.str, i32 noundef 101) #15
  %.val22.pre = load i32, ptr %6, align 8
  %26 = icmp sgt i32 %.val22.pre, 0
  br i1 %26, label %.thread, label %36

.thread:                                          ; preds = %13, %19
  %27 = load i8, ptr %9, align 1, !range !4, !noundef !5
  %28 = trunc nuw i8 %27 to i1
  %.pre.i24 = load i8, ptr %.phi.trans.insert.i, align 8, !range !4
  %.pre3.i25 = trunc nuw i8 %.pre.i24 to i1
  %.pre3.not.i26 = xor i1 %.pre3.i25, true
  %brmerge.i27 = select i1 %28, i1 true, i1 %.pre3.not.i26
  br i1 %brmerge.i27, label %job_is_cancelled_locked.exit29, label %29

29:                                               ; preds = %.thread
  tail call void @__assert_fail(ptr noundef nonnull @.str.5, ptr noundef nonnull @.str, i32 noundef 250, ptr noundef nonnull @__PRETTY_FUNCTION__.job_is_cancelled_locked) #17
  unreachable

job_is_cancelled_locked.exit29:                   ; preds = %.thread
  %.pre3.mux.i28 = select i1 %28, i1 %.pre3.i25, i1 false
  br i1 %.pre3.mux.i28, label %36, label %30

30:                                               ; preds = %job_is_cancelled_locked.exit29
  %31 = getelementptr inbounds nuw i8, ptr %0, i64 124
  %32 = load i32, ptr %31, align 4
  %33 = icmp eq i32 %32, 4
  %34 = select i1 %33, i32 5, i32 3
  tail call fastcc void @job_state_transition_locked(ptr noundef nonnull %0, i32 noundef %34)
  %35 = getelementptr inbounds nuw i8, ptr %0, i64 181
  store i8 1, ptr %35, align 1
  tail call void @job_do_yield_locked(ptr noundef nonnull %0, i64 noundef -1)
  store i8 0, ptr %35, align 1
  tail call fastcc void @job_state_transition_locked(ptr noundef nonnull %0, i32 noundef %32)
  br label %36

36:                                               ; preds = %30, %job_is_cancelled_locked.exit29, %19
  %37 = load ptr, ptr %14, align 8
  %38 = getelementptr inbounds nuw i8, ptr %37, i64 32
  %39 = tail call ptr @llvm.ptr.annotation.p0.p0(ptr nonnull %38, ptr nonnull @.str.24, ptr nonnull @.str.25, i32 237, ptr null)
  %40 = load ptr, ptr %39, align 8
  %.not20 = icmp eq ptr %40, null
  br i1 %.not20, label %48, label %41

41:                                               ; preds = %36
  tail call void @qemu_mutex_unlock_impl(ptr noundef nonnull @job_mutex, ptr noundef nonnull @.str, i32 noundef 106) #15
  %42 = load ptr, ptr %14, align 8
  %43 = getelementptr inbounds nuw i8, ptr %42, i64 32
  %44 = tail call ptr @llvm.ptr.annotation.p0.p0(ptr nonnull %43, ptr nonnull @.str.24, ptr nonnull @.str.25, i32 237, ptr null)
  %45 = load ptr, ptr %44, align 8
  tail call void %45(ptr noundef nonnull %0) #15
  %46 = load atomic i64, ptr @qemu_mutex_lock_func monotonic, align 8
  %47 = inttoptr i64 %46 to ptr
  tail call void %47(ptr noundef nonnull @job_mutex, ptr noundef nonnull @.str, i32 noundef 101) #15
  br label %48

48:                                               ; preds = %job_is_cancelled_locked.exit, %5, %41, %36
  ret void
}